target datalayout = "e-m:e-p270:32:32-p271:32:32-p272:64:64-i64:64-i128:128-f80:128-n8:16:32:64-S128"
target triple = "x86_64-pc-linux-gnu"

; Function Attrs: mustprogress uwtable
define internal noundef zeroext i1 @_ZL7is3DCRSPK8PJconsts(ptr noundef %0) #11 {
  %2 = alloca i1, align 1
  %3 = alloca ptr, align 8
  %4 = alloca i32, align 4
  %5 = alloca ptr, align 8
  %6 = alloca i8, align 1
  store ptr %0, ptr %3, align 8
  %7 = load ptr, ptr %3, align 8
  %8 = call i32 @proj_get_type(ptr noundef %7)
  store i32 %8, ptr %4, align 4
  %9 = load i32, ptr %4, align 4
  %10 = icmp eq i32 %9, 16
  br i1 %10, label %11, label %12

11:                                               ; preds = %1
  store i1 true, ptr %2, align 1
  br label %37

12:                                               ; preds = %1
  %13 = load i32, ptr %4, align 4
  %14 = icmp eq i32 %13, 13
  br i1 %14, label %15, label %16

15:                                               ; preds = %12
  store i1 true, ptr %2, align 1
  br label %37

16:                                               ; preds = %12
  %17 = load i32, ptr %4, align 4
  %18 = icmp eq i32 %17, 9
  br i1 %18, label %25, label %19

19:                                               ; preds = %16
  %20 = load i32, ptr %4, align 4
  %21 = icmp eq i32 %20, 15
  br i1 %21, label %25, label %22

22:                                               ; preds = %19
  %23 = load i32, ptr %4, align 4
  %24 = icmp eq i32 %23, 28
  br i1 %24, label %25, label %36

25:                                               ; preds = %22, %19, %16
  %26 = load ptr, ptr %3, align 8
  %27 = call ptr @proj_crs_get_coordinate_system(ptr noundef null, ptr noundef %26)
  store ptr %27, ptr %5, align 8
  %28 = load ptr, ptr %5, align 8
  %29 = call i32 @proj_cs_get_axis_count(ptr noundef null, ptr noundef %28)
  %30 = icmp eq i32 %29, 3
  %31 = zext i1 %30 to i8
  store i8 %31, ptr %6, align 1
  %32 = load ptr, ptr %5, align 8
  %33 = call ptr @proj_destroy(ptr noundef %32)
  %34 = load i8, ptr %6, align 1
  %35 = trunc i8 %34 to i1
  store i1 %35, ptr %2, align 1
  br label %37

36:                                               ; preds = %22
  store i1 false, ptr %2, align 1
  br label %37

37:                                               ; preds = %36, %25, %15, %11
  %38 = load i1, ptr %2, align 1
  ret i1 %38
}