; Function Attrs: mustprogress norecurse uwtable
define internal fastcc noundef zeroext i1 @_ZL7is3DCRSPK8PJconsts(ptr noundef %0) unnamed_addr #14 {
  %2 = tail call i32 @proj_get_type(ptr noundef %0)
  switch i32 %2, label %.fold.split [
    i32 16, label %8
    i32 13, label %8
    i32 28, label %3
    i32 15, label %3
    i32 9, label %3
  ]

3:                                                ; preds = %1, %1, %1
  %4 = tail call ptr @proj_crs_get_coordinate_system(ptr noundef null, ptr noundef %0)
  %5 = tail call i32 @proj_cs_get_axis_count(ptr noundef null, ptr noundef %4)
  %6 = icmp eq i32 %5, 3
  %7 = tail call ptr @proj_destroy(ptr noundef %4)
  br label %8

.fold.split:                                      ; preds = %1
  br label %8

8:                                                ; preds = %1, %1, %.fold.split, %3
  %.0 = phi i1 [ %6, %3 ], [ true, %1 ], [ true, %1 ], [ false, %.fold.split ]
  ret i1 %.0
}